target datalayout = "e-m:e-p270:32:32-p271:32:32-p272:64:64-i64:64-i128:128-f80:128-n8:16:32:64-S128"
target triple = "x86_64-pc-linux-gnu"

%"class.cv::Mat" = type { i32, i32, i32, i32, ptr, ptr, ptr, ptr, ptr, ptr, %"struct.cv::MatSize", %"struct.cv::MatStep" }
%"struct.cv::MatSize" = type { ptr }
%"struct.cv::MatStep" = type { ptr, [2 x i64] }

@_ZN12_GLOBAL__N_112img_originalE = internal global %"class.cv::Mat" zeroinitializer, align 8
@_ZN12_GLOBAL__N_15alphaE = internal global i32 100, align 4
@_ZN12_GLOBAL__N_14betaE = internal global i32 100, align 4

; Function Attrs: mustprogress uwtable
define internal void @_ZN12_GLOBAL__N_133on_linear_transform_beta_trackbarEiPv(i32 noundef %0, ptr noundef %1) #7 {
  %3 = alloca i32, align 4
  %4 = alloca ptr, align 8
  %5 = alloca double, align 8
  %6 = alloca i32, align 4
  store i32 %0, ptr %3, align 4, !tbaa !4
  store ptr %1, ptr %4, align 8, !tbaa !37
  call void @llvm.lifetime.start.p0(i64 8, ptr %5) #3
  %7 = load i32, ptr @_ZN12_GLOBAL__N_15alphaE, align 4, !tbaa !4
  %8 = sitofp i32 %7 to double
  %9 = fdiv double %8, 1.000000e+02
  store double %9, ptr %5, align 8, !tbaa !45
  call void @llvm.lifetime.start.p0(i64 4, ptr %6) #3
  %10 = load i32, ptr @_ZN12_GLOBAL__N_14betaE, align 4, !tbaa !4
  %11 = sub nsw i32 %10, 100
  store i32 %11, ptr %6, align 4, !tbaa !4
  %12 = load double, ptr %5, align 8, !tbaa !45
  %13 = load i32, ptr %6, align 4, !tbaa !4
  call void @_ZN12_GLOBAL__N_120basicLinearTransformERKN2cv3MatEdi(ptr noundef nonnull align 8 dereferenceable(96) @_ZN12_GLOBAL__N_112img_originalE, double noundef %12, i32 noundef %13)
  call void @llvm.lifetime.end.p0(i64 4, ptr %6) #3
  call void @llvm.lifetime.end.p0(i64 8, ptr %5) #3
  ret void
}