; Function Attrs: mustprogress uwtable
define internal void @_ZN12_GLOBAL__N_133on_linear_transform_beta_trackbarEiPv(i32 %0, ptr readnone captures(none) %1) #5 {
  %3 = load i32, ptr @_ZN12_GLOBAL__N_15alphaE, align 4, !tbaa !61
  %4 = sitofp i32 %3 to double
  %5 = fdiv double %4, 1.000000e+02
  %6 = load i32, ptr @_ZN12_GLOBAL__N_14betaE, align 4, !tbaa !61
  %7 = add nsw i32 %6, -100
  tail call fastcc void @_ZN12_GLOBAL__N_120basicLinearTransformERKN2cv3MatEdi(double noundef %5, i32 noundef %7)
  ret void
}